; Function Attrs: null_pointer_is_valid sspstrong uwtable
define internal noundef i32 @dissect_connect_open_request(ptr noundef %0, i32 noundef %1, ptr readnone captures(none) %2, ptr noundef %3, i32 %4) #0 {
  %6 = load i32, ptr @hf_ndmp_version, align 4
  %7 = tail call ptr @proto_tree_add_item(ptr noundef %3, i32 noundef %6, ptr noundef %0, i32 noundef %1, i32 noundef 4, i32 noundef 0)
  %8 = tail call i32 @tvb_get_ntohl(ptr noundef %0, i32 noundef %1)
  %9 = trunc i32 %8 to i8
  %10 = load ptr, ptr @ndmp_conv_data, align 8
  store i8 %9, ptr %10, align 8
  %11 = add i32 %1, 4
  ret i32 %11
}